target datalayout = "e-m:e-p270:32:32-p271:32:32-p272:64:64-i64:64-i128:128-f80:128-n8:16:32:64-S128"
target triple = "x86_64-pc-linux-gnu"

%struct.expert_field = type { i32, i32 }

@hf_nfapi_delta_offset_cqi = internal global i32 0, align 4
@hf_nfapi_delta_offset_ri = internal global i32 0, align 4
@hf_nfapi_report_type = internal global i32 0, align 4
@hf_nfapi_dl_cqi_ri_pmi_size = internal global i32 0, align 4
@hf_nfapi_control_type = internal global i32 0, align 4
@hf_nfapi_number_of_cc = internal global i32 0, align 4
@ei_invalid_range = internal global %struct.expert_field zeroinitializer, align 4
@.str.2096 = private unnamed_addr constant [39 x i8] c"Invalid delta offset cqi value [0..15]\00", align 1
@.str.2097 = private unnamed_addr constant [38 x i8] c"Invalid delta offset ri value [0..15]\00", align 1
@.str.2098 = private unnamed_addr constant [33 x i8] c"Invalid report type value [0..1]\00", align 1
@.str.2099 = private unnamed_addr constant [34 x i8] c"Invalid control type value [0..1]\00", align 1
@.str.2100 = private unnamed_addr constant [35 x i8] c"Invalid number of cc value [1..32]\00", align 1

; Function Attrs: nounwind uwtable
define internal void @dissect_ul_config_cqi_ri_info_rel9_later_value(ptr noundef %0, ptr noundef %1) #0 {
  %3 = alloca ptr, align 8
  %4 = alloca ptr, align 8
  %5 = alloca ptr, align 8
  %6 = alloca i32, align 4
  %7 = alloca i32, align 4
  %8 = alloca i32, align 4
  store ptr %0, ptr %3, align 8
  store ptr %1, ptr %4, align 8
  %9 = load ptr, ptr %3, align 8
  %10 = load i32, ptr @hf_nfapi_report_type, align 4
  %11 = call ptr @ptvcursor_add_ret_boolean(ptr noundef %9, i32 noundef %10, i32 noundef 1, i32 noundef 0, ptr noundef %7)
  store ptr %11, ptr %5, align 8
  %12 = load i32, ptr %7, align 4
  %13 = icmp sgt i32 %12, 1
  br i1 %13, label %14, label %18

14:                                               ; preds = %2
  %15 = load ptr, ptr %4, align 8
  %16 = load ptr, ptr %5, align 8
  %17 = call ptr (ptr, ptr, ptr, ptr, ...) @expert_add_info_format(ptr noundef %15, ptr noundef %16, ptr noundef @ei_invalid_range, ptr noundef @.str.2098)
  br label %18

18:                                               ; preds = %14, %2
  %19 = load ptr, ptr %3, align 8
  %20 = load i32, ptr @hf_nfapi_delta_offset_cqi, align 4
  %21 = call ptr @ptvcursor_add_ret_uint(ptr noundef %19, i32 noundef %20, i32 noundef 1, i32 noundef 0, ptr noundef %6)
  store ptr %21, ptr %5, align 8
  %22 = load i32, ptr %6, align 4
  %23 = icmp ugt i32 %22, 15
  br i1 %23, label %24, label %28

24:                                               ; preds = %18
  %25 = load ptr, ptr %4, align 8
  %26 = load ptr, ptr %5, align 8
  %27 = call ptr (ptr, ptr, ptr, ptr, ...) @expert_add_info_format(ptr noundef %25, ptr noundef %26, ptr noundef @ei_invalid_range, ptr noundef @.str.2096)
  br label %28

28:                                               ; preds = %24, %18
  %29 = load ptr, ptr %3, align 8
  %30 = load i32, ptr @hf_nfapi_delta_offset_ri, align 4
  %31 = call ptr @ptvcursor_add_ret_uint(ptr noundef %29, i32 noundef %30, i32 noundef 1, i32 noundef 0, ptr noundef %6)
  store ptr %31, ptr %5, align 8
  %32 = load i32, ptr %6, align 4
  %33 = icmp ugt i32 %32, 15
  br i1 %33, label %34, label %38

34:                                               ; preds = %28
  %35 = load ptr, ptr %4, align 8
  %36 = load ptr, ptr %5, align 8
  %37 = call ptr (ptr, ptr, ptr, ptr, ...) @expert_add_info_format(ptr noundef %35, ptr noundef %36, ptr noundef @ei_invalid_range, ptr noundef @.str.2097)
  br label %38

38:                                               ; preds = %34, %28
  %39 = load i32, ptr %7, align 4
  switch i32 %39, label %68 [
    i32 0, label %40
    i32 1, label %54
  ]

40:                                               ; preds = %38
  %41 = load ptr, ptr %3, align 8
  %42 = load i32, ptr @hf_nfapi_dl_cqi_ri_pmi_size, align 4
  %43 = call ptr @ptvcursor_add(ptr noundef %41, i32 noundef %42, i32 noundef 1, i32 noundef 0)
  %44 = load ptr, ptr %3, align 8
  %45 = load i32, ptr @hf_nfapi_control_type, align 4
  %46 = call ptr @ptvcursor_add_ret_boolean(ptr noundef %44, i32 noundef %45, i32 noundef 1, i32 noundef 0, ptr noundef %8)
  %47 = load i32, ptr %8, align 4
  %48 = icmp sgt i32 %47, 1
  br i1 %48, label %49, label %53

49:                                               ; preds = %40
  %50 = load ptr, ptr %4, align 8
  %51 = load ptr, ptr %5, align 8
  %52 = call ptr (ptr, ptr, ptr, ptr, ...) @expert_add_info_format(ptr noundef %50, ptr noundef %51, ptr noundef @ei_invalid_range, ptr noundef @.str.2099)
  br label %53

53:                                               ; preds = %49, %40
  br label %68

54:                                               ; preds = %38
  %55 = load ptr, ptr %3, align 8
  %56 = load i32, ptr @hf_nfapi_number_of_cc, align 4
  %57 = call ptr @ptvcursor_add_ret_uint(ptr noundef %55, i32 noundef %56, i32 noundef 1, i32 noundef 0, ptr noundef %6)
  %58 = load i32, ptr %6, align 4
  %59 = icmp uge i32 %58, 1
  br i1 %59, label %60, label %63

60:                                               ; preds = %54
  %61 = load i32, ptr %6, align 4
  %62 = icmp ule i32 %61, 32
  br i1 %62, label %67, label %63

63:                                               ; preds = %60, %54
  %64 = load ptr, ptr %4, align 8
  %65 = load ptr, ptr %5, align 8
  %66 = call ptr (ptr, ptr, ptr, ptr, ...) @expert_add_info_format(ptr noundef %64, ptr noundef %65, ptr noundef @ei_invalid_range, ptr noundef @.str.2100)
  br label %67

67:                                               ; preds = %63, %60
  br label %68

68:                                               ; preds = %67, %53, %38
  ret void
}