; Function Attrs: nounwind uwtable
define internal void @dissect_ul_config_cqi_ri_info_rel9_later_value(ptr noundef %0, ptr noundef %1) #0 {
  %3 = alloca i32, align 4
  %4 = alloca i32, align 4
  %5 = alloca i32, align 4
  %6 = load i32, ptr @hf_nfapi_report_type, align 4
  %7 = call ptr @ptvcursor_add_ret_boolean(ptr noundef %0, i32 noundef %6, i32 noundef 1, i32 noundef 0, ptr noundef nonnull %4) #7
  %8 = load i32, ptr %4, align 4
  %9 = icmp sgt i32 %8, 1
  br i1 %9, label %10, label %12

10:                                               ; preds = %2
  %11 = call ptr (ptr, ptr, ptr, ptr, ...) @expert_add_info_format(ptr noundef %1, ptr noundef %7, ptr noundef nonnull @ei_invalid_range, ptr noundef nonnull @.str.2098) #7
  br label %12

12:                                               ; preds = %10, %2
  %13 = load i32, ptr @hf_nfapi_delta_offset_cqi, align 4
  %14 = call ptr @ptvcursor_add_ret_uint(ptr noundef %0, i32 noundef %13, i32 noundef 1, i32 noundef 0, ptr noundef nonnull %3) #7
  %15 = load i32, ptr %3, align 4
  %16 = icmp ugt i32 %15, 15
  br i1 %16, label %17, label %19

17:                                               ; preds = %12
  %18 = call ptr (ptr, ptr, ptr, ptr, ...) @expert_add_info_format(ptr noundef %1, ptr noundef %14, ptr noundef nonnull @ei_invalid_range, ptr noundef nonnull @.str.2096) #7
  br label %19

19:                                               ; preds = %17, %12
  %20 = load i32, ptr @hf_nfapi_delta_offset_ri, align 4
  %21 = call ptr @ptvcursor_add_ret_uint(ptr noundef %0, i32 noundef %20, i32 noundef 1, i32 noundef 0, ptr noundef nonnull %3) #7
  %22 = load i32, ptr %3, align 4
  %23 = icmp ugt i32 %22, 15
  br i1 %23, label %24, label %26

24:                                               ; preds = %19
  %25 = call ptr (ptr, ptr, ptr, ptr, ...) @expert_add_info_format(ptr noundef %1, ptr noundef %21, ptr noundef nonnull @ei_invalid_range, ptr noundef nonnull @.str.2097) #7
  br label %26

26:                                               ; preds = %24, %19
  %27 = load i32, ptr %4, align 4
  switch i32 %27, label %41 [
    i32 0, label %28
    i32 1, label %35
  ]

28:                                               ; preds = %26
  %29 = load i32, ptr @hf_nfapi_dl_cqi_ri_pmi_size, align 4
  %30 = call ptr @ptvcursor_add(ptr noundef %0, i32 noundef %29, i32 noundef 1, i32 noundef 0) #7
  %31 = load i32, ptr @hf_nfapi_control_type, align 4
  %32 = call ptr @ptvcursor_add_ret_boolean(ptr noundef %0, i32 noundef %31, i32 noundef 1, i32 noundef 0, ptr noundef nonnull %5) #7
  %33 = load i32, ptr %5, align 4
  %34 = icmp sgt i32 %33, 1
  br i1 %34, label %.sink.split, label %41

35:                                               ; preds = %26
  %36 = load i32, ptr @hf_nfapi_number_of_cc, align 4
  %37 = call ptr @ptvcursor_add_ret_uint(ptr noundef %0, i32 noundef %36, i32 noundef 1, i32 noundef 0, ptr noundef nonnull %3) #7
  %38 = load i32, ptr %3, align 4
  %39 = add i32 %38, -1
  %or.cond = icmp ult i32 %39, 32
  br i1 %or.cond, label %41, label %.sink.split

.sink.split:                                      ; preds = %35, %28
  %.str.2100.sink = phi ptr [ @.str.2099, %28 ], [ @.str.2100, %35 ]
  %40 = call ptr (ptr, ptr, ptr, ptr, ...) @expert_add_info_format(ptr noundef %1, ptr noundef %21, ptr noundef nonnull @ei_invalid_range, ptr noundef nonnull %.str.2100.sink) #7
  br label %41

41:                                               ; preds = %.sink.split, %35, %28, %26
  ret void
}